target datalayout = "e-m:e-p270:32:32-p271:32:32-p272:64:64-i64:64-i128:128-f80:128-n8:16:32:64-S128"
target triple = "x86_64-pc-linux-gnu"

%struct._fileset = type { ptr, ptr }
%struct.stat = type { i64, i64, i64, i32, i32, i32, i32, i64, i64, i64, i64, %struct.timespec, %struct.timespec, %struct.timespec, [3 x i64] }
%struct.timespec = type { i64, i64 }
%struct._GList = type { ptr, ptr, ptr }
%struct._fileset_entry = type { ptr, ptr, i64, i64, i64, i32 }

@set = internal global %struct._fileset zeroinitializer, align 8

; Function Attrs: nounwind uwtable
define hidden void @fileset_update_file(ptr noundef %0) #0 {
  %2 = alloca ptr, align 8
  %3 = alloca i32, align 4
  %4 = alloca i32, align 4
  %5 = alloca %struct.stat, align 8
  %6 = alloca ptr, align 8
  %7 = alloca ptr, align 8
  store ptr %0, ptr %2, align 8
  store ptr null, ptr %6, align 8
  %8 = load ptr, ptr %2, align 8
  %9 = call i32 (ptr, i32, ...) @open(ptr noundef %8, i32 noundef 0, i32 noundef 0)
  store i32 %9, ptr %3, align 4
  %10 = load i32, ptr %3, align 4
  %11 = icmp ne i32 %10, -1
  br i1 %11, label %12, label %42

12:                                               ; preds = %1
  %13 = load i32, ptr %3, align 4
  %14 = call i32 @fstat(i32 noundef %13, ptr noundef %5) #6
  store i32 %14, ptr %4, align 4
  %15 = load i32, ptr %4, align 4
  %16 = icmp eq i32 %15, 0
  br i1 %16, label %17, label %39

17:                                               ; preds = %12
  %18 = load ptr, ptr @set, align 8
  %19 = load ptr, ptr %2, align 8
  %20 = call ptr @g_list_find_custom(ptr noundef %18, ptr noundef %19, ptr noundef @fileset_find_by_path)
  store ptr %20, ptr %7, align 8
  %21 = load ptr, ptr %7, align 8
  %22 = icmp ne ptr %21, null
  br i1 %22, label %23, label %38

23:                                               ; preds = %17
  %24 = load ptr, ptr %7, align 8
  %25 = getelementptr inbounds %struct._GList, ptr %24, i32 0, i32 0
  %26 = load ptr, ptr %25, align 8
  store ptr %26, ptr %6, align 8
  %27 = load ptr, ptr %6, align 8
  %28 = getelementptr inbounds %struct._fileset_entry, ptr %27, i32 0, i32 2
  store i64 0, ptr %28, align 8
  %29 = getelementptr inbounds %struct.stat, ptr %5, i32 0, i32 12
  %30 = getelementptr inbounds %struct.timespec, ptr %29, i32 0, i32 0
  %31 = load i64, ptr %30, align 8
  %32 = load ptr, ptr %6, align 8
  %33 = getelementptr inbounds %struct._fileset_entry, ptr %32, i32 0, i32 3
  store i64 %31, ptr %33, align 8
  %34 = getelementptr inbounds %struct.stat, ptr %5, i32 0, i32 8
  %35 = load i64, ptr %34, align 8
  %36 = load ptr, ptr %6, align 8
  %37 = getelementptr inbounds %struct._fileset_entry, ptr %36, i32 0, i32 4
  store i64 %35, ptr %37, align 8
  br label %38

38:                                               ; preds = %23, %17
  br label %39

39:                                               ; preds = %38, %12
  %40 = load i32, ptr %3, align 4
  %41 = call i32 @close(i32 noundef %40)
  br label %42

42:                                               ; preds = %39, %1
  ret void
}