; Function Attrs: nounwind uwtable
define hidden void @fileset_update_file(ptr noundef %0) local_unnamed_addr #0 {
  %2 = alloca %struct.stat, align 8
  %3 = tail call i32 (ptr, i32, ...) @open(ptr noundef %0, i32 noundef 0, i32 noundef 0) #9
  %.not = icmp eq i32 %3, -1
  br i1 %.not, label %21, label %4

4:                                                ; preds = %1
  %5 = call i32 @fstat(i32 noundef %3, ptr noundef nonnull %2) #9
  %6 = icmp eq i32 %5, 0
  br i1 %6, label %7, label %19

7:                                                ; preds = %4
  %8 = load ptr, ptr @set.0, align 8
  %9 = tail call ptr @g_list_find_custom(ptr noundef %8, ptr noundef %0, ptr noundef nonnull @fileset_find_by_path) #9
  %.not11 = icmp eq ptr %9, null
  br i1 %.not11, label %19, label %10

10:                                               ; preds = %7
  %11 = load ptr, ptr %9, align 8
  %12 = getelementptr inbounds nuw i8, ptr %11, i64 16
  store i64 0, ptr %12, align 8
  %13 = getelementptr inbounds nuw i8, ptr %2, i64 88
  %14 = load i64, ptr %13, align 8
  %15 = getelementptr inbounds nuw i8, ptr %11, i64 24
  store i64 %14, ptr %15, align 8
  %16 = getelementptr inbounds nuw i8, ptr %2, i64 48
  %17 = load i64, ptr %16, align 8
  %18 = getelementptr inbounds nuw i8, ptr %11, i64 32
  store i64 %17, ptr %18, align 8
  br label %19

19:                                               ; preds = %7, %10, %4
  %20 = tail call i32 @close(i32 noundef %3) #9
  br label %21

21:                                               ; preds = %19, %1
  ret void
}